; Function Attrs: nounwind uwtable
define dso_local i64 @PG_encoding_to_char(ptr noundef readonly captures(none) %0) local_unnamed_addr #0 {
  %2 = getelementptr inbounds nuw i8, ptr %0, i64 32
  %3 = load i64, ptr %2, align 8
  %4 = trunc i64 %3 to i32
  %5 = tail call ptr @pg_encoding_to_char_private(i32 noundef %4) #13
  %6 = ptrtoint ptr %5 to i64
  %7 = tail call i64 @DirectFunctionCall1Coll(ptr noundef nonnull @namein, i32 noundef 0, i64 noundef %6) #13
  ret i64 %7
}